; ModuleID = 'source-C-CXX/14/710.c'
source_filename = "source-C-CXX/14/710.c"
target datalayout = "e-m:e-p270:32:32-p271:32:32-p272:64:64-i64:64-f80:128-n8:16:32:64-S128"
target triple = "x86_64-pc-linux-gnu"

@.str = private unnamed_addr constant [3 x i8] c"%d\00", align 1
@.str.1 = private unnamed_addr constant [4 x i8] c"%d\0A\00", align 1

; Function Attrs: nofree nounwind sspstrong uwtable
define dso_local i32 @main() local_unnamed_addr #0 {
  %1 = alloca i32, align 4
  %2 = alloca i32, align 4
  %3 = bitcast i32* %1 to i8*
  call void @llvm.lifetime.start.p0i8(i64 4, i8* nonnull %3) #3
  %4 = bitcast i32* %2 to i8*
  call void @llvm.lifetime.start.p0i8(i64 4, i8* nonnull %4) #3
  %5 = call i32 (i8*, ...) @__isoc99_scanf(i8* getelementptr inbounds ([3 x i8], [3 x i8]* @.str, i64 0, i64 0), i32* nonnull %1)
  %6 = load i32, i32* %1, align 4, !tbaa !5
  %7 = mul nsw i32 %6, %6
  %8 = icmp eq i32 %7, 0
  br i1 %8, label %35, label %9

9:                                                ; preds = %0, %9
  %10 = phi i32 [ %31, %9 ], [ 1, %0 ]
  %11 = phi i32 [ %30, %9 ], [ 0, %0 ]
  %12 = phi i32 [ %29, %9 ], [ 0, %0 ]
  %13 = phi i32 [ %26, %9 ], [ 0, %0 ]
  %14 = phi i32 [ %20, %9 ], [ 0, %0 ]
  %15 = call i32 (i8*, ...) @__isoc99_scanf(i8* getelementptr inbounds ([3 x i8], [3 x i8]* @.str, i64 0, i64 0), i32* nonnull %2)
  %16 = load i32, i32* %2, align 4, !tbaa !5
  %17 = icmp eq i32 %16, 0
  %18 = icmp eq i32 %11, 0
  %19 = zext i1 %17 to i32
  %20 = add nuw nsw i32 %14, %19
  %21 = select i1 %17, i1 %18, i1 false
  %22 = select i1 %21, i32 1, i32 %12
  %23 = icmp eq i32 %22, 1
  %24 = select i1 %17, i1 %23, i1 false
  %25 = zext i1 %24 to i32
  %26 = add nuw nsw i32 %13, %25
  %27 = icmp ne i32 %16, 0
  %28 = select i1 %23, i1 %27, i1 false
  %29 = select i1 %28, i32 2, i32 %22
  %30 = select i1 %28, i32 1, i32 %11
  %31 = add nuw nsw i32 %10, 1
  %32 = load i32, i32* %1, align 4, !tbaa !5
  %33 = mul nsw i32 %32, %32
  %34 = icmp ult i32 %10, %33
  br i1 %34, label %9, label %35, !llvm.loop !9

35:                                               ; preds = %9, %0
  %36 = phi i32 [ 0, %0 ], [ %20, %9 ]
  %37 = phi i32 [ 0, %0 ], [ %26, %9 ]
  %38 = phi i32 [ %6, %0 ], [ %32, %9 ]
  %39 = icmp sgt i32 %37, %38
  %40 = select i1 %39, i32 %38, i32 %37
  %41 = mul i32 %40, -2
  %42 = add i32 %41, %36
  %43 = add nsw i32 %40, -2
  %44 = mul nsw i32 %42, %43
  %45 = sdiv i32 %44, 2
  %46 = call i32 (i8*, ...) @printf(i8* nonnull dereferenceable(1) getelementptr inbounds ([4 x i8], [4 x i8]* @.str.1, i64 0, i64 0), i32 %45)
  call void @llvm.lifetime.end.p0i8(i64 4, i8* nonnull %4) #3
  call void @llvm.lifetime.end.p0i8(i64 4, i8* nonnull %3) #3
  ret i32 0
}

; Function Attrs: argmemonly mustprogress nofree nosync nounwind willreturn
declare void @llvm.lifetime.start.p0i8(i64 immarg, i8* nocapture) #1

; Function Attrs: nofree nounwind
declare noundef i32 @__isoc99_scanf(i8* nocapture noundef readonly, ...) local_unnamed_addr #2

; Function Attrs: nofree nounwind
declare noundef i32 @printf(i8* nocapture noundef readonly, ...) local_unnamed_addr #2

; Function Attrs: argmemonly mustprogress nofree nosync nounwind willreturn
declare void @llvm.lifetime.end.p0i8(i64 immarg, i8* nocapture) #1


!llvm.module.flags = !{!0, !1, !2, !3}
!llvm.ident = !{!4}

!0 = !{i32 1, !"wchar_size", i32 4}
!1 = !{i32 7, !"PIC Level", i32 2}
!2 = !{i32 7, !"PIE Level", i32 2}
!3 = !{i32 7, !"uwtable", i32 1}
!4 = !{!"clang version 13.0.0"}
!5 = !{!6, !6, i64 0}
!6 = !{!"int", !7, i64 0}
!7 = !{!"omnipotent char", !8, i64 0}
!8 = !{!"Simple C/C++ TBAA"}
!9 = distinct !{!9, !10}
!10 = !{!"llvm.loop.mustprogress"}
